; ModuleID = '29/1403.c'
source_filename = "29/1403.c"
target datalayout = "e-m:e-p270:32:32-p271:32:32-p272:64:64-i64:64-f80:128-n8:16:32:64-S128"
target triple = "x86_64-pc-linux-gnu"

@.str = private unnamed_addr constant [3 x i8] c"%d\00", align 1
@.str.1 = private unnamed_addr constant [7 x i8] c"%.3lf\0A\00", align 1

; Function Attrs: noinline nounwind uwtable
define dso_local i32 @main(i32 %0, i8** %1) #0 {
  %3 = alloca i32, align 4
  %4 = alloca i32, align 4
  %5 = alloca i8**, align 8
  %6 = alloca [100 x double], align 16
  %7 = alloca [100 x double], align 16
  %8 = alloca double, align 8
  %9 = alloca i32, align 4
  %10 = alloca i32, align 4
  %11 = alloca i32, align 4
  %12 = alloca i32, align 4
  store i32 0, i32* %3, align 4
  store i32 %0, i32* %4, align 4
  store i8** %1, i8*** %5, align 8
  store double 0.000000e+00, double* %8, align 8
  %13 = getelementptr inbounds [100 x double], [100 x double]* %6, i64 0, i64 0
  store double 2.000000e+00, double* %13, align 16
  %14 = getelementptr inbounds [100 x double], [100 x double]* %6, i64 0, i64 1
  store double 3.000000e+00, double* %14, align 8
  %15 = getelementptr inbounds [100 x double], [100 x double]* %7, i64 0, i64 0
  store double 1.000000e+00, double* %15, align 16
  %16 = getelementptr inbounds [100 x double], [100 x double]* %7, i64 0, i64 1
  store double 2.000000e+00, double* %16, align 8
  %17 = call i32 (i8*, ...) @__isoc99_scanf(i8* getelementptr inbounds ([3 x i8], [3 x i8]* @.str, i64 0, i64 0), i32* %9)
  store i32 1, i32* %11, align 4
  br label %18

18:                                               ; preds = %84, %2
  %19 = load i32, i32* %11, align 4
  %20 = load i32, i32* %9, align 4
  %21 = icmp sle i32 %19, %20
  br i1 %21, label %22, label %87

22:                                               ; preds = %18
  %23 = call i32 (i8*, ...) @__isoc99_scanf(i8* getelementptr inbounds ([3 x i8], [3 x i8]* @.str, i64 0, i64 0), i32* %10)
  %24 = load i32, i32* %10, align 4
  %25 = icmp eq i32 %24, 1
  br i1 %25, label %26, label %27

26:                                               ; preds = %22
  store double 2.000000e+00, double* %8, align 8
  br label %81

27:                                               ; preds = %22
  %28 = load i32, i32* %10, align 4
  %29 = icmp eq i32 %28, 2
  br i1 %29, label %30, label %31

30:                                               ; preds = %27
  store double 3.500000e+00, double* %8, align 8
  br label %80

31:                                               ; preds = %27
  store double 3.500000e+00, double* %8, align 8
  store i32 2, i32* %12, align 4
  br label %32

32:                                               ; preds = %76, %31
  %33 = load i32, i32* %12, align 4
  %34 = load i32, i32* %10, align 4
  %35 = icmp slt i32 %33, %34
  br i1 %35, label %36, label %79

36:                                               ; preds = %32
  %37 = load i32, i32* %12, align 4
  %38 = sub nsw i32 %37, 1
  %39 = sext i32 %38 to i64
  %40 = getelementptr inbounds [100 x double], [100 x double]* %6, i64 0, i64 %39
  %41 = load double, double* %40, align 8
  %42 = load i32, i32* %12, align 4
  %43 = sub nsw i32 %42, 2
  %44 = sext i32 %43 to i64
  %45 = getelementptr inbounds [100 x double], [100 x double]* %6, i64 0, i64 %44
  %46 = load double, double* %45, align 8
  %47 = fadd double %41, %46
  %48 = load i32, i32* %12, align 4
  %49 = sext i32 %48 to i64
  %50 = getelementptr inbounds [100 x double], [100 x double]* %6, i64 0, i64 %49
  store double %47, double* %50, align 8
  %51 = load i32, i32* %12, align 4
  %52 = sub nsw i32 %51, 1
  %53 = sext i32 %52 to i64
  %54 = getelementptr inbounds [100 x double], [100 x double]* %7, i64 0, i64 %53
  %55 = load double, double* %54, align 8
  %56 = load i32, i32* %12, align 4
  %57 = sub nsw i32 %56, 2
  %58 = sext i32 %57 to i64
  %59 = getelementptr inbounds [100 x double], [100 x double]* %7, i64 0, i64 %58
  %60 = load double, double* %59, align 8
  %61 = fadd double %55, %60
  %62 = load i32, i32* %12, align 4
  %63 = sext i32 %62 to i64
  %64 = getelementptr inbounds [100 x double], [100 x double]* %7, i64 0, i64 %63
  store double %61, double* %64, align 8
  %65 = load i32, i32* %12, align 4
  %66 = sext i32 %65 to i64
  %67 = getelementptr inbounds [100 x double], [100 x double]* %6, i64 0, i64 %66
  %68 = load double, double* %67, align 8
  %69 = load i32, i32* %12, align 4
  %70 = sext i32 %69 to i64
  %71 = getelementptr inbounds [100 x double], [100 x double]* %7, i64 0, i64 %70
  %72 = load double, double* %71, align 8
  %73 = fdiv double %68, %72
  %74 = load double, double* %8, align 8
  %75 = fadd double %74, %73
  store double %75, double* %8, align 8
  br label %76

76:                                               ; preds = %36
  %77 = load i32, i32* %12, align 4
  %78 = add nsw i32 %77, 1
  store i32 %78, i32* %12, align 4
  br label %32

79:                                               ; preds = %32
  br label %80

80:                                               ; preds = %79, %30
  br label %81

81:                                               ; preds = %80, %26
  %82 = load double, double* %8, align 8
  %83 = call i32 (i8*, ...) @printf(i8* getelementptr inbounds ([7 x i8], [7 x i8]* @.str.1, i64 0, i64 0), double %82)
  br label %84

84:                                               ; preds = %81
  %85 = load i32, i32* %11, align 4
  %86 = add nsw i32 %85, 1
  store i32 %86, i32* %11, align 4
  br label %18

87:                                               ; preds = %18
  ret i32 0
}

declare dso_local i32 @__isoc99_scanf(i8*, ...) #1

declare dso_local i32 @printf(i8*, ...) #1


!llvm.module.flags = !{!0}
!llvm.ident = !{!1}

!0 = !{i32 1, !"wchar_size", i32 4}
!1 = !{!"clang version 10.0.0-4ubuntu1 "}
